(lp0
ccopy_reg
_reconstructor
p1
(cgripper_program.gripper_program_node
PoseState
p2
c__builtin__
object
p3
Ntp4
Rp5
(dp6
S'pose_stamped'
p7
g1
(cgeometry_msgs.msg._PoseStamped
PoseStamped
p8
g3
Ntp9
Rp10
(lp11
g1
(cstd_msgs.msg._Header
Header
p12
g3
Ntp13
Rp14
(lp15
I0
ag1
(cgenpy.rostime
Time
p16
g3
Ntp17
Rp18
(lp19
I0
aI0
abaS'16'
p20
abag1
(cgeometry_msgs.msg._Pose
Pose
p21
g3
Ntp22
Rp23
(lp24
g1
(cgeometry_msgs.msg._Point
Point
p25
g3
Ntp26
Rp27
(lp28
cnumpy.core.multiarray
scalar
p29
(cnumpy
dtype
p30
(S'f8'
p31
I0
I1
tp32
Rp33
(I3
S'<'
p34
NNNI-1
I-1
I0
tp35
bS'\x08\x9a&+B\x80\xa4\xbf'
p36
tp37
Rp38
ag29
(g33
S'\xd0uJ\n\x01\x97\xc2\xbf'
p39
tp40
Rp41
ag29
(g33
S'\x8e\x82\xf0\x7f\xa7>\xcd?'
p42
tp43
Rp44
abag1
(cgeometry_msgs.msg._Quaternion
Quaternion
p45
g3
Ntp46
Rp47
(lp48
g29
(g33
S'\xd7\xc8+y*b\xda\xbf'
p49
tp50
Rp51
ag29
(g33
S'\xe6\x19\x9d|\xced\xdb?'
p52
tp53
Rp54
ag29
(g33
S'\x04vL\xa9|\xa9\xe0?'
p55
tp56
Rp57
ag29
(g33
S'W\xac\x90yr\x9d\xe3?'
p58
tp59
Rp60
abababsS'gripper_open'
p61
I01
sbag1
(g2
g3
Ntp62
Rp63
(dp64
g7
g1
(g8
g3
Ntp65
Rp66
(lp67
g1
(g12
g3
Ntp68
Rp69
(lp70
I0
ag1
(g16
g3
Ntp71
Rp72
(lp73
I0
aI0
abaS'16'
p74
abag1
(g21
g3
Ntp75
Rp76
(lp77
g1
(g25
g3
Ntp78
Rp79
(lp80
g29
(g33
S'\xb3\x97\x84\xef\x01\xce\x8f\xbf'
p81
tp82
Rp83
ag29
(g33
S'\x10\x97\x1e\x02G\xd9\xbe\xbf'
p84
tp85
Rp86
ag29
(g33
S'\xd0:\x8ez\xd51\xc0?'
p87
tp88
Rp89
abag1
(g45
g3
Ntp90
Rp91
(lp92
g29
(g33
S'xM\xa1\xcd\xd7\x9e\xd9\xbf'
p93
tp94
Rp95
ag29
(g33
S'$J\xfb\xc6\xecX\xdb?'
p96
tp97
Rp98
ag29
(g33
S'Z[\xe8\x98\x16\x9d\xe0?'
p99
tp100
Rp101
ag29
(g33
S'y\x7f\xb0\xc18\xec\xe3?'
p102
tp103
Rp104
abababsg61
I01
sbag1
(g2
g3
Ntp105
Rp106
(dp107
g7
g1
(g8
g3
Ntp108
Rp109
(lp110
g1
(g12
g3
Ntp111
Rp112
(lp113
I0
ag1
(g16
g3
Ntp114
Rp115
(lp116
I0
aI0
abaS'16'
p117
abag1
(g21
g3
Ntp118
Rp119
(lp120
g1
(g25
g3
Ntp121
Rp122
(lp123
g29
(g33
S'D\x0e\xe4\x8b\xcf<\x86\xbf'
p124
tp125
Rp126
ag29
(g33
S'\x10\xb7\xff\x99HW\xbf\xbf'
p127
tp128
Rp129
ag29
(g33
S'2\xbb/[\xdb\x1c\xc0?'
p130
tp131
Rp132
abag1
(g45
g3
Ntp133
Rp134
(lp135
g29
(g33
S'\xfe\x96\xa4\xf1\xe3\\\xd9\xbf'
p136
tp137
Rp138
ag29
(g33
S'Q\xbc\xdfN\xe3V\xdb?'
p139
tp140
Rp141
ag29
(g33
S'\x12\xed^\x8a[\xf5\xe0?'
p142
tp143
Rp144
ag29
(g33
S'C\x13\xd99_\xb7\xe3?'
p145
tp146
Rp147
abababsg61
I00
sbag1
(g2
g3
Ntp148
Rp149
(dp150
g7
g1
(g8
g3
Ntp151
Rp152
(lp153
g1
(g12
g3
Ntp154
Rp155
(lp156
I0
ag1
(g16
g3
Ntp157
Rp158
(lp159
I0
aI0
abaS'16'
p160
abag1
(g21
g3
Ntp161
Rp162
(lp163
g1
(g25
g3
Ntp164
Rp165
(lp166
g29
(g33
S'\xccTdRm\x16\xb8?'
p167
tp168
Rp169
ag29
(g33
S'\xd8@\x8d;\xdaM\xc1?'
p170
tp171
Rp172
ag29
(g33
S'\xb4N\xfd\xd0\xa6}\xd0?'
p173
tp174
Rp175
abag1
(g45
g3
Ntp176
Rp177
(lp178
g29
(g33
S'rZ\xcd)-\xaa\xd5\xbf'
p179
tp180
Rp181
ag29
(g33
S'\x90\x02d~\x9f:\xda?'
p182
tp183
Rp184
ag29
(g33
S'\x90}\xe7\x19\xe7"\xe1?'
p185
tp186
Rp187
ag29
(g33
S'\xf7\xef\xd1!\x18\x00\xe5?'
p188
tp189
Rp190
abababsg61
I00
sbag1
(g2
g3
Ntp191
Rp192
(dp193
g7
g1
(g8
g3
Ntp194
Rp195
(lp196
g1
(g12
g3
Ntp197
Rp198
(lp199
I0
ag1
(g16
g3
Ntp200
Rp201
(lp202
I0
aI0
abaS'14'
p203
abag1
(g21
g3
Ntp204
Rp205
(lp206
g1
(g25
g3
Ntp207
Rp208
(lp209
g29
(g33
S'L\xfc_\xf7\x87\xe7\xa0\xbf'
p210
tp211
Rp212
ag29
(g33
S'p\x87\xcf\x80nn\xb4\xbf'
p213
tp214
Rp215
ag29
(g33
S'\x98\xa5\xbc\xca\x88\xda\xd0?'
p216
tp217
Rp218
abag1
(g45
g3
Ntp219
Rp220
(lp221
g29
(g33
S'G\xf5\x85}y\xde\xae?'
p222
tp223
Rp224
ag29
(g33
S'\x89\xb8a\x8a\x99x\x9d?'
p225
tp226
Rp227
ag29
(g33
S'T\xdcP\xa3@l\xe3?'
p228
tp229
Rp230
ag29
(g33
S'\xd5\x9e\x90\x1e`W\xe9?'
p231
tp232
Rp233
abababsg61
I00
sbag1
(g2
g3
Ntp234
Rp235
(dp236
g7
g1
(g8
g3
Ntp237
Rp238
(lp239
g1
(g12
g3
Ntp240
Rp241
(lp242
I0
ag1
(g16
g3
Ntp243
Rp244
(lp245
I0
aI0
abaS'14'
p246
abag1
(g21
g3
Ntp247
Rp248
(lp249
g1
(g25
g3
Ntp250
Rp251
(lp252
g29
(g33
S'\xb4f\xb7Zb\xb5\xb3\xbf'
p253
tp254
Rp255
ag29
(g33
S'\x18\xba\x1dK,\xf1\xb1\xbf'
p256
tp257
Rp258
ag29
(g33
S'\xc8o\xf0",\xa0\xba?'
p259
tp260
Rp261
abag1
(g45
g3
Ntp262
Rp263
(lp264
g29
(g33
S'\xa0\xf1\x0b!\xf2-M?'
p265
tp266
Rp267
ag29
(g33
S'\xa2\x86\xd1\xddL\x9e\xae?'
p268
tp269
Rp270
ag29
(g33
S'\xa8rX\xc8&\x05\xe1?'
p271
tp272
Rp273
ag29
(g33
S'\xdc\x00\xd0s\xd4\x07\xeb?'
p274
tp275
Rp276
abababsg61
I00
sbag1
(g2
g3
Ntp277
Rp278
(dp279
g7
g1
(g8
g3
Ntp280
Rp281
(lp282
g1
(g12
g3
Ntp283
Rp284
(lp285
I0
ag1
(g16
g3
Ntp286
Rp287
(lp288
I0
aI0
abaS'14'
p289
abag1
(g21
g3
Ntp290
Rp291
(lp292
g1
(g25
g3
Ntp293
Rp294
(lp295
g29
(g33
S'*k\x90_\x99\xa4\xb3\xbf'
p296
tp297
Rp298
ag29
(g33
S'\x88\x02\x10\xf0\xe1\xe6\xb1\xbf'
p299
tp300
Rp301
ag29
(g33
S'\x80yA\x96\xdb\x9b\xba?'
p302
tp303
Rp304
abag1
(g45
g3
Ntp305
Rp306
(lp307
g29
(g33
S'\xe8\xaf\x87a\xb7\xe4J?'
p308
tp309
Rp310
ag29
(g33
S'\xcd22\xf2\xf1\x82\xae?'
p311
tp312
Rp313
ag29
(g33
S'\x9b\xfb\xa0\xbf\xd5\x01\xe1?'
p314
tp315
Rp316
ag29
(g33
S'\xd1A\xd0\xd7\t\n\xeb?'
p317
tp318
Rp319
abababsg61
I01
sba.